target datalayout = "e-m:e-p270:32:32-p271:32:32-p272:64:64-i64:64-i128:128-f80:128-n8:16:32:64-S128"
target triple = "x86_64-pc-linux-gnu"

; Function Attrs: mustprogress uwtable
define linkonce_odr void @_ZN5Ipopt6Vector3SetEd(ptr noundef nonnull align 8 dereferenceable(205) %0, double noundef %1) #0 comdat align 2 {
  %3 = alloca ptr, align 8
  %4 = alloca double, align 8
  store ptr %0, ptr %3, align 8
  store double %1, ptr %4, align 8
  %5 = load ptr, ptr %3, align 8
  %6 = load double, ptr %4, align 8
  %7 = load ptr, ptr %5, align 8
  %8 = getelementptr inbounds ptr, ptr %7, i64 9
  %9 = load ptr, ptr %8, align 8
  call void %9(ptr noundef nonnull align 8 dereferenceable(205) %5, double noundef %6)
  call void @_ZN5Ipopt12TaggedObject13ObjectChangedEv(ptr noundef nonnull align 8 dereferenceable(56) %5)
  ret void
}

; Function Attrs: mustprogress uwtable
define linkonce_odr void @_ZN5Ipopt6Vector4AxpyEdRKS0_(ptr noundef nonnull align 8 dereferenceable(205) %0, double noundef %1, ptr noundef nonnull align 8 dereferenceable(205) %2) #0 comdat align 2 {
  %4 = alloca ptr, align 8
  %5 = alloca double, align 8
  %6 = alloca ptr, align 8
  store ptr %0, ptr %4, align 8
  store double %1, ptr %5, align 8
  store ptr %2, ptr %6, align 8
  %7 = load ptr, ptr %4, align 8
  %8 = load double, ptr %5, align 8
  %9 = load ptr, ptr %6, align 8
  %10 = load ptr, ptr %7, align 8
  %11 = getelementptr inbounds ptr, ptr %10, i64 4
  %12 = load ptr, ptr %11, align 8
  call void %12(ptr noundef nonnull align 8 dereferenceable(205) %7, double noundef %8, ptr noundef nonnull align 8 dereferenceable(205) %9)
  call void @_ZN5Ipopt12TaggedObject13ObjectChangedEv(ptr noundef nonnull align 8 dereferenceable(56) %7)
  ret void
}

; Function Attrs: mustprogress uwtable
define void @_ZN5Ipopt6Vector17AddTwoVectorsImplEdRKS0_dS2_d(ptr noundef nonnull align 8 dereferenceable(205) %0, double noundef %1, ptr noundef nonnull align 8 dereferenceable(205) %2, double noundef %3, ptr noundef nonnull align 8 dereferenceable(205) %4, double noundef %5) unnamed_addr #0 align 2 {
  %7 = alloca ptr, align 8
  %8 = alloca double, align 8
  %9 = alloca ptr, align 8
  %10 = alloca double, align 8
  %11 = alloca ptr, align 8
  %12 = alloca double, align 8
  store ptr %0, ptr %7, align 8
  store double %1, ptr %8, align 8
  store ptr %2, ptr %9, align 8
  store double %3, ptr %10, align 8
  store ptr %4, ptr %11, align 8
  store double %5, ptr %12, align 8
  %13 = load ptr, ptr %7, align 8
  %14 = load double, ptr %12, align 8
  %15 = fcmp oeq double %14, 0.000000e+00
  br i1 %15, label %16, label %64

16:                                               ; preds = %6
  %17 = load double, ptr %8, align 8
  %18 = fcmp oeq double %17, 1.000000e+00
  br i1 %18, label %19, label %27

19:                                               ; preds = %16
  %20 = load ptr, ptr %9, align 8
  call void @_ZN5Ipopt6Vector4CopyERKS0_(ptr noundef nonnull align 8 dereferenceable(205) %13, ptr noundef nonnull align 8 dereferenceable(205) %20)
  %21 = load double, ptr %10, align 8
  %22 = fcmp une double %21, 0.000000e+00
  br i1 %22, label %23, label %26

23:                                               ; preds = %19
  %24 = load double, ptr %10, align 8
  %25 = load ptr, ptr %11, align 8
  call void @_ZN5Ipopt6Vector4AxpyEdRKS0_(ptr noundef nonnull align 8 dereferenceable(205) %13, double noundef %24, ptr noundef nonnull align 8 dereferenceable(205) %25)
  br label %26

26:                                               ; preds = %23, %19
  br label %63

27:                                               ; preds = %16
  %28 = load double, ptr %8, align 8
  %29 = fcmp oeq double %28, 0.000000e+00
  br i1 %29, label %30, label %42

30:                                               ; preds = %27
  %31 = load double, ptr %10, align 8
  %32 = fcmp oeq double %31, 0.000000e+00
  br i1 %32, label %33, label %34

33:                                               ; preds = %30
  call void @_ZN5Ipopt6Vector3SetEd(ptr noundef nonnull align 8 dereferenceable(205) %13, double noundef 0.000000e+00)
  br label %41

34:                                               ; preds = %30
  %35 = load ptr, ptr %11, align 8
  call void @_ZN5Ipopt6Vector4CopyERKS0_(ptr noundef nonnull align 8 dereferenceable(205) %13, ptr noundef nonnull align 8 dereferenceable(205) %35)
  %36 = load double, ptr %10, align 8
  %37 = fcmp une double %36, 1.000000e+00
  br i1 %37, label %38, label %40

38:                                               ; preds = %34
  %39 = load double, ptr %10, align 8
  call void @_ZN5Ipopt6Vector4ScalEd(ptr noundef nonnull align 8 dereferenceable(205) %13, double noundef %39)
  br label %40

40:                                               ; preds = %38, %34
  br label %41

41:                                               ; preds = %40, %33
  br label %62

42:                                               ; preds = %27
  %43 = load double, ptr %10, align 8
  %44 = fcmp oeq double %43, 1.000000e+00
  br i1 %44, label %45, label %49

45:                                               ; preds = %42
  %46 = load ptr, ptr %11, align 8
  call void @_ZN5Ipopt6Vector4CopyERKS0_(ptr noundef nonnull align 8 dereferenceable(205) %13, ptr noundef nonnull align 8 dereferenceable(205) %46)
  %47 = load double, ptr %8, align 8
  %48 = load ptr, ptr %9, align 8
  call void @_ZN5Ipopt6Vector4AxpyEdRKS0_(ptr noundef nonnull align 8 dereferenceable(205) %13, double noundef %47, ptr noundef nonnull align 8 dereferenceable(205) %48)
  br label %61

49:                                               ; preds = %42
  %50 = load double, ptr %10, align 8
  %51 = fcmp oeq double %50, 0.000000e+00
  br i1 %51, label %52, label %55

52:                                               ; preds = %49
  %53 = load ptr, ptr %9, align 8
  call void @_ZN5Ipopt6Vector4CopyERKS0_(ptr noundef nonnull align 8 dereferenceable(205) %13, ptr noundef nonnull align 8 dereferenceable(205) %53)
  %54 = load double, ptr %8, align 8
  call void @_ZN5Ipopt6Vector4ScalEd(ptr noundef nonnull align 8 dereferenceable(205) %13, double noundef %54)
  br label %60

55:                                               ; preds = %49
  %56 = load ptr, ptr %9, align 8
  call void @_ZN5Ipopt6Vector4CopyERKS0_(ptr noundef nonnull align 8 dereferenceable(205) %13, ptr noundef nonnull align 8 dereferenceable(205) %56)
  %57 = load double, ptr %8, align 8
  call void @_ZN5Ipopt6Vector4ScalEd(ptr noundef nonnull align 8 dereferenceable(205) %13, double noundef %57)
  %58 = load double, ptr %10, align 8
  %59 = load ptr, ptr %11, align 8
  call void @_ZN5Ipopt6Vector4AxpyEdRKS0_(ptr noundef nonnull align 8 dereferenceable(205) %13, double noundef %58, ptr noundef nonnull align 8 dereferenceable(205) %59)
  br label %60

60:                                               ; preds = %55, %52
  br label %61

61:                                               ; preds = %60, %45
  br label %62

62:                                               ; preds = %61, %41
  br label %63

63:                                               ; preds = %62, %26
  br label %82

64:                                               ; preds = %6
  %65 = load double, ptr %12, align 8
  %66 = fcmp une double %65, 1.000000e+00
  br i1 %66, label %67, label %69

67:                                               ; preds = %64
  %68 = load double, ptr %12, align 8
  call void @_ZN5Ipopt6Vector4ScalEd(ptr noundef nonnull align 8 dereferenceable(205) %13, double noundef %68)
  br label %69

69:                                               ; preds = %67, %64
  %70 = load double, ptr %8, align 8
  %71 = fcmp une double %70, 0.000000e+00
  br i1 %71, label %72, label %75

72:                                               ; preds = %69
  %73 = load double, ptr %8, align 8
  %74 = load ptr, ptr %9, align 8
  call void @_ZN5Ipopt6Vector4AxpyEdRKS0_(ptr noundef nonnull align 8 dereferenceable(205) %13, double noundef %73, ptr noundef nonnull align 8 dereferenceable(205) %74)
  br label %75

75:                                               ; preds = %72, %69
  %76 = load double, ptr %10, align 8
  %77 = fcmp une double %76, 0.000000e+00
  br i1 %77, label %78, label %81

78:                                               ; preds = %75
  %79 = load double, ptr %10, align 8
  %80 = load ptr, ptr %11, align 8
  call void @_ZN5Ipopt6Vector4AxpyEdRKS0_(ptr noundef nonnull align 8 dereferenceable(205) %13, double noundef %79, ptr noundef nonnull align 8 dereferenceable(205) %80)
  br label %81

81:                                               ; preds = %78, %75
  br label %82

82:                                               ; preds = %81, %63
  ret void
}