; Function Attrs: mustprogress uwtable
define void @_ZN5Ipopt6Vector17AddTwoVectorsImplEdRKS0_dS2_d(ptr noundef nonnull align 8 dereferenceable(205) %0, double noundef %1, ptr noundef nonnull align 8 dereferenceable(205) %2, double noundef %3, ptr noundef nonnull align 8 dereferenceable(205) %4, double noundef %5) unnamed_addr #0 align 2 {
  %7 = fcmp oeq double %5, 0.000000e+00
  br i1 %7, label %8, label %39

8:                                                ; preds = %6
  %9 = fcmp oeq double %1, 1.000000e+00
  br i1 %9, label %10, label %16

10:                                               ; preds = %8
  tail call void @_ZN5Ipopt6Vector4CopyERKS0_(ptr noundef nonnull align 8 dereferenceable(205) %0, ptr noundef nonnull align 8 dereferenceable(205) %2)
  %11 = fcmp une double %3, 0.000000e+00
  br i1 %11, label %12, label %54

12:                                               ; preds = %10
  %13 = load ptr, ptr %0, align 8
  %14 = getelementptr inbounds i8, ptr %13, i64 32
  %15 = load ptr, ptr %14, align 8
  tail call void %15(ptr noundef nonnull align 8 dereferenceable(205) %0, double noundef %3, ptr noundef nonnull align 8 dereferenceable(205) %4)
  tail call void @_ZN5Ipopt12TaggedObject13ObjectChangedEv(ptr noundef nonnull align 8 dereferenceable(56) %0)
  br label %54

16:                                               ; preds = %8
  %17 = fcmp oeq double %1, 0.000000e+00
  br i1 %17, label %18, label %27

18:                                               ; preds = %16
  %19 = fcmp oeq double %3, 0.000000e+00
  br i1 %19, label %20, label %24

20:                                               ; preds = %18
  %21 = load ptr, ptr %0, align 8
  %22 = getelementptr inbounds i8, ptr %21, i64 72
  %23 = load ptr, ptr %22, align 8
  tail call void %23(ptr noundef nonnull align 8 dereferenceable(205) %0, double noundef 0.000000e+00)
  tail call void @_ZN5Ipopt12TaggedObject13ObjectChangedEv(ptr noundef nonnull align 8 dereferenceable(56) %0)
  br label %54

24:                                               ; preds = %18
  tail call void @_ZN5Ipopt6Vector4CopyERKS0_(ptr noundef nonnull align 8 dereferenceable(205) %0, ptr noundef nonnull align 8 dereferenceable(205) %4)
  %25 = fcmp une double %3, 1.000000e+00
  br i1 %25, label %26, label %54

26:                                               ; preds = %24
  tail call void @_ZN5Ipopt6Vector4ScalEd(ptr noundef nonnull align 8 dereferenceable(205) %0, double noundef %3)
  br label %54

27:                                               ; preds = %16
  %28 = fcmp oeq double %3, 1.000000e+00
  br i1 %28, label %29, label %33

29:                                               ; preds = %27
  tail call void @_ZN5Ipopt6Vector4CopyERKS0_(ptr noundef nonnull align 8 dereferenceable(205) %0, ptr noundef nonnull align 8 dereferenceable(205) %4)
  %30 = load ptr, ptr %0, align 8
  %31 = getelementptr inbounds i8, ptr %30, i64 32
  %32 = load ptr, ptr %31, align 8
  tail call void %32(ptr noundef nonnull align 8 dereferenceable(205) %0, double noundef %1, ptr noundef nonnull align 8 dereferenceable(205) %2)
  tail call void @_ZN5Ipopt12TaggedObject13ObjectChangedEv(ptr noundef nonnull align 8 dereferenceable(56) %0)
  br label %54

33:                                               ; preds = %27
  %34 = fcmp oeq double %3, 0.000000e+00
  tail call void @_ZN5Ipopt6Vector4CopyERKS0_(ptr noundef nonnull align 8 dereferenceable(205) %0, ptr noundef nonnull align 8 dereferenceable(205) %2)
  tail call void @_ZN5Ipopt6Vector4ScalEd(ptr noundef nonnull align 8 dereferenceable(205) %0, double noundef %1)
  br i1 %34, label %54, label %35

35:                                               ; preds = %33
  %36 = load ptr, ptr %0, align 8
  %37 = getelementptr inbounds i8, ptr %36, i64 32
  %38 = load ptr, ptr %37, align 8
  tail call void %38(ptr noundef nonnull align 8 dereferenceable(205) %0, double noundef %3, ptr noundef nonnull align 8 dereferenceable(205) %4)
  tail call void @_ZN5Ipopt12TaggedObject13ObjectChangedEv(ptr noundef nonnull align 8 dereferenceable(56) %0)
  br label %54

39:                                               ; preds = %6
  %40 = fcmp une double %5, 1.000000e+00
  br i1 %40, label %41, label %42

41:                                               ; preds = %39
  tail call void @_ZN5Ipopt6Vector4ScalEd(ptr noundef nonnull align 8 dereferenceable(205) %0, double noundef %5)
  br label %42

42:                                               ; preds = %41, %39
  %43 = fcmp une double %1, 0.000000e+00
  br i1 %43, label %44, label %48

44:                                               ; preds = %42
  %45 = load ptr, ptr %0, align 8
  %46 = getelementptr inbounds i8, ptr %45, i64 32
  %47 = load ptr, ptr %46, align 8
  tail call void %47(ptr noundef nonnull align 8 dereferenceable(205) %0, double noundef %1, ptr noundef nonnull align 8 dereferenceable(205) %2)
  tail call void @_ZN5Ipopt12TaggedObject13ObjectChangedEv(ptr noundef nonnull align 8 dereferenceable(56) %0)
  br label %48

48:                                               ; preds = %44, %42
  %49 = fcmp une double %3, 0.000000e+00
  br i1 %49, label %50, label %54

50:                                               ; preds = %48
  %51 = load ptr, ptr %0, align 8
  %52 = getelementptr inbounds i8, ptr %51, i64 32
  %53 = load ptr, ptr %52, align 8
  tail call void %53(ptr noundef nonnull align 8 dereferenceable(205) %0, double noundef %3, ptr noundef nonnull align 8 dereferenceable(205) %4)
  tail call void @_ZN5Ipopt12TaggedObject13ObjectChangedEv(ptr noundef nonnull align 8 dereferenceable(56) %0)
  br label %54

54:                                               ; preds = %33, %48, %50, %12, %10, %29, %35, %20, %26, %24
  ret void
}